; Function Attrs: mustprogress nounwind uwtable
define hidden void @_ZN14XCollectedHeap12memory_usageEv(ptr dead_on_unwind noalias writable sret(%class.MemoryUsage) align 8 %0, ptr noundef nonnull align 64 dereferenceable(4432) %1) unnamed_addr #1 align 2 {
  %3 = getelementptr inbounds i8, ptr %1, i64 192
  %4 = tail call noundef ptr @_ZN5XHeap26serviceability_memory_poolEv(ptr noundef nonnull align 64 dereferenceable(4088) %3) #9
  %5 = load ptr, ptr %4, align 8
  %6 = getelementptr inbounds i8, ptr %5, i64 32
  %7 = load ptr, ptr %6, align 8
  tail call void %7(ptr dead_on_unwind writable sret(%class.MemoryUsage) align 8 %0, ptr noundef nonnull align 8 dereferenceable(201) %4) #9
  ret void
}